target datalayout = "e-m:e-p270:32:32-p271:32:32-p272:64:64-i64:64-i128:128-f80:128-n8:16:32:64-S128"
target triple = "x86_64-pc-linux-gnu"

%struct.gs_part = type { ptr, i16, i32, ptr, i32, i32, ptr, i32, i32, ptr, ptr, i16, ptr }

@gs_part_list = internal global ptr null, align 8

; Function Attrs: nounwind uwtable
define internal void @_clear_shadow(ptr noundef %0) #0 {
  %2 = alloca ptr, align 8
  %3 = alloca ptr, align 8
  %4 = alloca ptr, align 8
  %5 = alloca i32, align 4
  store ptr %0, ptr %2, align 8
  call void @llvm.lifetime.start.p0(i64 8, ptr %3) #8
  call void @llvm.lifetime.start.p0(i64 8, ptr %4) #8
  call void @llvm.lifetime.start.p0(i64 4, ptr %5) #8
  %6 = load ptr, ptr @gs_part_list, align 8
  %7 = call ptr @list_iterator_create(ptr noundef %6)
  store ptr %7, ptr %3, align 8
  br label %8

8:                                                ; preds = %76, %46, %17, %1
  %9 = load ptr, ptr %3, align 8
  %10 = call ptr @list_next(ptr noundef %9)
  store ptr %10, ptr %4, align 8
  %11 = icmp ne ptr %10, null
  br i1 %11, label %12, label %85

12:                                               ; preds = %8
  %13 = load ptr, ptr %4, align 8
  %14 = getelementptr inbounds nuw %struct.gs_part, ptr %13, i32 0, i32 6
  %15 = load ptr, ptr %14, align 8
  %16 = icmp ne ptr %15, null
  br i1 %16, label %18, label %17

17:                                               ; preds = %12
  br label %8, !llvm.loop !34

18:                                               ; preds = %12
  store i32 0, ptr %5, align 4
  br label %19

19:                                               ; preds = %37, %18
  %20 = load i32, ptr %5, align 4
  %21 = load ptr, ptr %4, align 8
  %22 = getelementptr inbounds nuw %struct.gs_part, ptr %21, i32 0, i32 5
  %23 = load i32, ptr %22, align 4
  %24 = icmp ult i32 %20, %23
  br i1 %24, label %25, label %40

25:                                               ; preds = %19
  %26 = load ptr, ptr %4, align 8
  %27 = getelementptr inbounds nuw %struct.gs_part, ptr %26, i32 0, i32 6
  %28 = load ptr, ptr %27, align 8
  %29 = load i32, ptr %5, align 4
  %30 = sext i32 %29 to i64
  %31 = getelementptr inbounds ptr, ptr %28, i64 %30
  %32 = load ptr, ptr %31, align 8
  %33 = load ptr, ptr %2, align 8
  %34 = icmp eq ptr %32, %33
  br i1 %34, label %35, label %36

35:                                               ; preds = %25
  br label %40

36:                                               ; preds = %25
  br label %37

37:                                               ; preds = %36
  %38 = load i32, ptr %5, align 4
  %39 = add nsw i32 %38, 1
  store i32 %39, ptr %5, align 4
  br label %19, !llvm.loop !35

40:                                               ; preds = %35, %19
  %41 = load i32, ptr %5, align 4
  %42 = load ptr, ptr %4, align 8
  %43 = getelementptr inbounds nuw %struct.gs_part, ptr %42, i32 0, i32 5
  %44 = load i32, ptr %43, align 4
  %45 = icmp uge i32 %41, %44
  br i1 %45, label %46, label %47

46:                                               ; preds = %40
  br label %8, !llvm.loop !34

47:                                               ; preds = %40
  %48 = load ptr, ptr %4, align 8
  %49 = getelementptr inbounds nuw %struct.gs_part, ptr %48, i32 0, i32 5
  %50 = load i32, ptr %49, align 4
  %51 = add i32 %50, -1
  store i32 %51, ptr %49, align 4
  br label %52

52:                                               ; preds = %73, %47
  %53 = load i32, ptr %5, align 4
  %54 = load ptr, ptr %4, align 8
  %55 = getelementptr inbounds nuw %struct.gs_part, ptr %54, i32 0, i32 5
  %56 = load i32, ptr %55, align 4
  %57 = icmp ult i32 %53, %56
  br i1 %57, label %58, label %76

58:                                               ; preds = %52
  %59 = load ptr, ptr %4, align 8
  %60 = getelementptr inbounds nuw %struct.gs_part, ptr %59, i32 0, i32 6
  %61 = load ptr, ptr %60, align 8
  %62 = load i32, ptr %5, align 4
  %63 = add nsw i32 %62, 1
  %64 = sext i32 %63 to i64
  %65 = getelementptr inbounds ptr, ptr %61, i64 %64
  %66 = load ptr, ptr %65, align 8
  %67 = load ptr, ptr %4, align 8
  %68 = getelementptr inbounds nuw %struct.gs_part, ptr %67, i32 0, i32 6
  %69 = load ptr, ptr %68, align 8
  %70 = load i32, ptr %5, align 4
  %71 = sext i32 %70 to i64
  %72 = getelementptr inbounds ptr, ptr %69, i64 %71
  store ptr %66, ptr %72, align 8
  br label %73

73:                                               ; preds = %58
  %74 = load i32, ptr %5, align 4
  %75 = add nsw i32 %74, 1
  store i32 %75, ptr %5, align 4
  br label %52, !llvm.loop !36

76:                                               ; preds = %52
  %77 = load ptr, ptr %4, align 8
  %78 = getelementptr inbounds nuw %struct.gs_part, ptr %77, i32 0, i32 6
  %79 = load ptr, ptr %78, align 8
  %80 = load ptr, ptr %4, align 8
  %81 = getelementptr inbounds nuw %struct.gs_part, ptr %80, i32 0, i32 5
  %82 = load i32, ptr %81, align 4
  %83 = zext i32 %82 to i64
  %84 = getelementptr inbounds nuw ptr, ptr %79, i64 %83
  store ptr null, ptr %84, align 8
  br label %8, !llvm.loop !34

85:                                               ; preds = %8
  %86 = load ptr, ptr %3, align 8
  call void @list_iterator_destroy(ptr noundef %86)
  call void @llvm.lifetime.end.p0(i64 4, ptr %5) #8
  call void @llvm.lifetime.end.p0(i64 8, ptr %4) #8
  call void @llvm.lifetime.end.p0(i64 8, ptr %3) #8
  ret void
}