; Function Attrs: nounwind uwtable
define internal fastcc void @_clear_shadow(ptr noundef readnone captures(address) %0) unnamed_addr #0 {
  %2 = load ptr, ptr @gs_part_list, align 8
  %3 = tail call ptr @list_iterator_create(ptr noundef %2) #8
  %4 = tail call ptr @list_next(ptr noundef %3) #8
  %.not32 = icmp eq ptr %4, null
  br i1 %.not32, label %._crit_edge35, label %.lr.ph34

.lr.ph34:                                         ; preds = %1, %.backedge
  %5 = phi ptr [ %27, %.backedge ], [ %4, %1 ]
  %6 = getelementptr inbounds nuw i8, ptr %5, i64 32
  %7 = load ptr, ptr %6, align 8
  %.not23 = icmp eq ptr %7, null
  br i1 %.not23, label %.backedge, label %.preheader

.preheader:                                       ; preds = %.lr.ph34
  %8 = getelementptr inbounds nuw i8, ptr %5, i64 28
  %9 = load i32, ptr %8, align 4
  %.not36 = icmp eq i32 %9, 0
  br i1 %.not36, label %.backedge, label %.lr.ph.preheader

.lr.ph.preheader:                                 ; preds = %.preheader
  %wide.trip.count = zext i32 %9 to i64
  br label %.lr.ph

.lr.ph:                                           ; preds = %.lr.ph.preheader, %13
  %indvars.iv = phi i64 [ 0, %.lr.ph.preheader ], [ %indvars.iv.next, %13 ]
  %10 = getelementptr inbounds nuw ptr, ptr %7, i64 %indvars.iv
  %11 = load ptr, ptr %10, align 8
  %12 = icmp eq ptr %11, %0
  br i1 %12, label %14, label %13

13:                                               ; preds = %.lr.ph
  %indvars.iv.next = add nuw nsw i64 %indvars.iv, 1
  %exitcond.not = icmp eq i64 %indvars.iv.next, %wide.trip.count
  br i1 %exitcond.not, label %.backedge, label %.lr.ph, !llvm.loop !26

14:                                               ; preds = %.lr.ph
  %15 = trunc nuw nsw i64 %indvars.iv to i32
  %16 = add i32 %9, -1
  store i32 %16, ptr %8, align 4
  %17 = icmp ugt i32 %16, %15
  br i1 %17, label %.lr.ph31, label %.._crit_edge_crit_edge

.._crit_edge_crit_edge:                           ; preds = %14
  %.pre44 = zext i32 %16 to i64
  br label %._crit_edge

.lr.ph31:                                         ; preds = %14, %.lr.ph31
  %indvars.iv41 = phi i64 [ %indvars.iv.next42, %.lr.ph31 ], [ %indvars.iv, %14 ]
  %18 = load ptr, ptr %6, align 8
  %indvars.iv.next42 = add nuw nsw i64 %indvars.iv41, 1
  %19 = getelementptr inbounds nuw ptr, ptr %18, i64 %indvars.iv.next42
  %20 = load ptr, ptr %19, align 8
  %21 = getelementptr inbounds nuw ptr, ptr %18, i64 %indvars.iv41
  store ptr %20, ptr %21, align 8
  %22 = load i32, ptr %8, align 4
  %23 = zext i32 %22 to i64
  %24 = icmp samesign ult i64 %indvars.iv.next42, %23
  br i1 %24, label %.lr.ph31, label %._crit_edge.loopexit, !llvm.loop !27

._crit_edge.loopexit:                             ; preds = %.lr.ph31
  %.pre = load ptr, ptr %6, align 8
  br label %._crit_edge

._crit_edge:                                      ; preds = %.._crit_edge_crit_edge, %._crit_edge.loopexit
  %.pre-phi = phi i64 [ %.pre44, %.._crit_edge_crit_edge ], [ %23, %._crit_edge.loopexit ]
  %25 = phi ptr [ %7, %.._crit_edge_crit_edge ], [ %.pre, %._crit_edge.loopexit ]
  %26 = getelementptr inbounds nuw ptr, ptr %25, i64 %.pre-phi
  store ptr null, ptr %26, align 8
  br label %.backedge

.backedge:                                        ; preds = %13, %.preheader, %._crit_edge, %.lr.ph34
  %27 = tail call ptr @list_next(ptr noundef %3) #8
  %.not = icmp eq ptr %27, null
  br i1 %.not, label %._crit_edge35, label %.lr.ph34, !llvm.loop !28

._crit_edge35:                                    ; preds = %.backedge, %1
  tail call void @list_iterator_destroy(ptr noundef %3) #8
  ret void
}